target datalayout = "e-m:e-p270:32:32-p271:32:32-p272:64:64-i64:64-i128:128-f80:128-n8:16:32:64-S128"
target triple = "x86_64-pc-linux-gnu"

%"class.std::vector" = type { %"struct.std::_Vector_base" }
%"struct.std::_Vector_base" = type { %"struct.std::_Vector_base<std::__cxx11::basic_string<char>, std::allocator<std::__cxx11::basic_string<char>>>::_Vector_impl" }
%"struct.std::_Vector_base<std::__cxx11::basic_string<char>, std::allocator<std::__cxx11::basic_string<char>>>::_Vector_impl" = type { %"struct.std::_Vector_base<std::__cxx11::basic_string<char>, std::allocator<std::__cxx11::basic_string<char>>>::_Vector_impl_data" }
%"struct.std::_Vector_base<std::__cxx11::basic_string<char>, std::allocator<std::__cxx11::basic_string<char>>>::_Vector_impl_data" = type { ptr, ptr, ptr }
%"class.colvar::cvc" = type { %class.colvarparse, %class.colvardeps, %"class.std::__cxx11::basic_string", %"class.std::__cxx11::basic_string", double, i32, double, double, %"class.std::vector.54", i8, %"class.std::vector", %class.colvarvalue, %class.colvarvalue, %class.colvarvalue, %class.colvarvalue, %class.colvarvalue, %class.colvarvalue, double }
%class.colvarparse = type { %class.colvarparams, %"class.std::__cxx11::basic_string", %"class.std::__cxx11::basic_string", %"class.std::__cxx11::list", %"class.std::map.34", %"class.std::__cxx11::list.39", %"class.std::__cxx11::list.39", %"class.std::__cxx11::basic_string" }
%class.colvarparams = type { ptr, %"class.std::map", %"class.std::map.23" }
%"class.std::map" = type { %"class.std::_Rb_tree" }
%"class.std::_Rb_tree" = type { %"struct.std::_Rb_tree<std::__cxx11::basic_string<char>, std::pair<const std::__cxx11::basic_string<char>, const void *>, std::_Select1st<std::pair<const std::__cxx11::basic_string<char>, const void *>>, std::less<std::__cxx11::basic_string<char>>>::_Rb_tree_impl" }
%"struct.std::_Rb_tree<std::__cxx11::basic_string<char>, std::pair<const std::__cxx11::basic_string<char>, const void *>, std::_Select1st<std::pair<const std::__cxx11::basic_string<char>, const void *>>, std::less<std::__cxx11::basic_string<char>>>::_Rb_tree_impl" = type { [8 x i8], %"struct.std::_Rb_tree_header" }
%"struct.std::_Rb_tree_header" = type { %"struct.std::_Rb_tree_node_base", i64 }
%"struct.std::_Rb_tree_node_base" = type { i32, ptr, ptr, ptr }
%"class.std::map.23" = type { %"class.std::_Rb_tree.24" }
%"class.std::_Rb_tree.24" = type { %"struct.std::_Rb_tree<std::__cxx11::basic_string<char>, std::pair<const std::__cxx11::basic_string<char>, const colvarvalue *>, std::_Select1st<std::pair<const std::__cxx11::basic_string<char>, const colvarvalue *>>, std::less<std::__cxx11::basic_string<char>>>::_Rb_tree_impl" }
%"struct.std::_Rb_tree<std::__cxx11::basic_string<char>, std::pair<const std::__cxx11::basic_string<char>, const colvarvalue *>, std::_Select1st<std::pair<const std::__cxx11::basic_string<char>, const colvarvalue *>>, std::less<std::__cxx11::basic_string<char>>>::_Rb_tree_impl" = type { [8 x i8], %"struct.std::_Rb_tree_header" }
%"class.std::__cxx11::list" = type { %"class.std::__cxx11::_List_base" }
%"class.std::__cxx11::_List_base" = type { %"struct.std::__cxx11::_List_base<std::__cxx11::basic_string<char>, std::allocator<std::__cxx11::basic_string<char>>>::_List_impl" }
%"struct.std::__cxx11::_List_base<std::__cxx11::basic_string<char>, std::allocator<std::__cxx11::basic_string<char>>>::_List_impl" = type { %"struct.std::__detail::_List_node_header" }
%"struct.std::__detail::_List_node_header" = type { %"struct.std::__detail::_List_node_base", i64 }
%"struct.std::__detail::_List_node_base" = type { ptr, ptr }
%"class.std::map.34" = type { %"class.std::_Rb_tree.35" }
%"class.std::_Rb_tree.35" = type { %"struct.std::_Rb_tree<std::__cxx11::basic_string<char>, std::pair<const std::__cxx11::basic_string<char>, colvarparse::key_set_mode>, std::_Select1st<std::pair<const std::__cxx11::basic_string<char>, colvarparse::key_set_mode>>, std::less<std::__cxx11::basic_string<char>>>::_Rb_tree_impl" }
%"struct.std::_Rb_tree<std::__cxx11::basic_string<char>, std::pair<const std::__cxx11::basic_string<char>, colvarparse::key_set_mode>, std::_Select1st<std::pair<const std::__cxx11::basic_string<char>, colvarparse::key_set_mode>>, std::less<std::__cxx11::basic_string<char>>>::_Rb_tree_impl" = type { [8 x i8], %"struct.std::_Rb_tree_header" }
%"class.std::__cxx11::list.39" = type { %"class.std::__cxx11::_List_base.40" }
%"class.std::__cxx11::_List_base.40" = type { %"struct.std::__cxx11::_List_base<unsigned long, std::allocator<unsigned long>>::_List_impl" }
%"struct.std::__cxx11::_List_base<unsigned long, std::allocator<unsigned long>>::_List_impl" = type { %"struct.std::__detail::_List_node_header" }
%class.colvardeps = type { ptr, %"class.std::__cxx11::basic_string", i32, %"class.std::vector.44", %"class.std::vector.49", %"class.std::vector.49" }
%"class.std::vector.44" = type { %"struct.std::_Vector_base.45" }
%"struct.std::_Vector_base.45" = type { %"struct.std::_Vector_base<colvardeps::feature_state, std::allocator<colvardeps::feature_state>>::_Vector_impl" }
%"struct.std::_Vector_base<colvardeps::feature_state, std::allocator<colvardeps::feature_state>>::_Vector_impl" = type { %"struct.std::_Vector_base<colvardeps::feature_state, std::allocator<colvardeps::feature_state>>::_Vector_impl_data" }
%"struct.std::_Vector_base<colvardeps::feature_state, std::allocator<colvardeps::feature_state>>::_Vector_impl_data" = type { ptr, ptr, ptr }
%"class.std::vector.49" = type { %"struct.std::_Vector_base.50" }
%"struct.std::_Vector_base.50" = type { %"struct.std::_Vector_base<colvardeps *, std::allocator<colvardeps *>>::_Vector_impl" }
%"struct.std::_Vector_base<colvardeps *, std::allocator<colvardeps *>>::_Vector_impl" = type { %"struct.std::_Vector_base<colvardeps *, std::allocator<colvardeps *>>::_Vector_impl_data" }
%"struct.std::_Vector_base<colvardeps *, std::allocator<colvardeps *>>::_Vector_impl_data" = type { ptr, ptr, ptr }
%"class.std::__cxx11::basic_string" = type { %"struct.std::__cxx11::basic_string<char>::_Alloc_hider", i64, %union.anon }
%"struct.std::__cxx11::basic_string<char>::_Alloc_hider" = type { ptr }
%union.anon = type { i64, [8 x i8] }
%"class.std::vector.54" = type { %"struct.std::_Vector_base.55" }
%"struct.std::_Vector_base.55" = type { %"struct.std::_Vector_base<colvarmodule::atom_group *, std::allocator<colvarmodule::atom_group *>>::_Vector_impl" }
%"struct.std::_Vector_base<colvarmodule::atom_group *, std::allocator<colvarmodule::atom_group *>>::_Vector_impl" = type { %"struct.std::_Vector_base<colvarmodule::atom_group *, std::allocator<colvarmodule::atom_group *>>::_Vector_impl_data" }
%"struct.std::_Vector_base<colvarmodule::atom_group *, std::allocator<colvarmodule::atom_group *>>::_Vector_impl_data" = type { ptr, ptr, ptr }
%class.colvarvalue = type { i32, double, %"class.colvarmodule::rvector", %"class.colvarmodule::quaternion", %"class.colvarmodule::vector1d", %"class.std::vector.10", %"class.std::vector.15", %"class.std::vector.15" }
%"class.colvarmodule::rvector" = type { double, double, double }
%"class.colvarmodule::quaternion" = type { double, double, double, double }
%"class.colvarmodule::vector1d" = type { %"class.std::vector.5" }
%"class.std::vector.5" = type { %"struct.std::_Vector_base.6" }
%"struct.std::_Vector_base.6" = type { %"struct.std::_Vector_base<double, std::allocator<double>>::_Vector_impl" }
%"struct.std::_Vector_base<double, std::allocator<double>>::_Vector_impl" = type { %"struct.std::_Vector_base<double, std::allocator<double>>::_Vector_impl_data" }
%"struct.std::_Vector_base<double, std::allocator<double>>::_Vector_impl_data" = type { ptr, ptr, ptr }
%"class.std::vector.10" = type { %"struct.std::_Vector_base.11" }
%"struct.std::_Vector_base.11" = type { %"struct.std::_Vector_base<colvarvalue::Type, std::allocator<colvarvalue::Type>>::_Vector_impl" }
%"struct.std::_Vector_base<colvarvalue::Type, std::allocator<colvarvalue::Type>>::_Vector_impl" = type { %"struct.std::_Vector_base<colvarvalue::Type, std::allocator<colvarvalue::Type>>::_Vector_impl_data" }
%"struct.std::_Vector_base<colvarvalue::Type, std::allocator<colvarvalue::Type>>::_Vector_impl_data" = type { ptr, ptr, ptr }
%"class.std::vector.15" = type { %"struct.std::_Vector_base.16" }
%"struct.std::_Vector_base.16" = type { %"struct.std::_Vector_base<int, std::allocator<int>>::_Vector_impl" }
%"struct.std::_Vector_base<int, std::allocator<int>>::_Vector_impl" = type { %"struct.std::_Vector_base<int, std::allocator<int>>::_Vector_impl_data" }
%"struct.std::_Vector_base<int, std::allocator<int>>::_Vector_impl_data" = type { ptr, ptr, ptr }
%"class.colvar::dipole_angle" = type <{ %"class.colvar::cvc", ptr, ptr, ptr, %"class.colvarmodule::rvector", %"class.colvarmodule::rvector", double, double, %"class.colvarmodule::rvector", %"class.colvarmodule::rvector", i8, [7 x i8] }>

@.str.2 = private unnamed_addr constant [7 x i8] c"group1\00", align 1
@.str.3 = private unnamed_addr constant [7 x i8] c"group2\00", align 1
@.str.4 = private unnamed_addr constant [7 x i8] c"group3\00", align 1

; Function Attrs: mustprogress uwtable
define noundef i32 @_ZN6colvar12dipole_angle4initERKNSt7__cxx1112basic_stringIcSt11char_traitsIcESaIcEEE(ptr noundef nonnull align 8 dereferenceable(1745) %0, ptr noundef nonnull align 8 dereferenceable(32) %1) unnamed_addr #2 align 2 {
  %3 = alloca ptr, align 8
  %4 = alloca ptr, align 8
  %5 = alloca i32, align 4
  store ptr %0, ptr %3, align 8, !tbaa !118
  store ptr %1, ptr %4, align 8, !tbaa !9
  %6 = load ptr, ptr %3, align 8
  call void @llvm.lifetime.start.p0(i64 4, ptr %5) #17
  %7 = load ptr, ptr %4, align 8, !tbaa !9
  %8 = call noundef i32 @_ZN6colvar3cvc4initERKNSt7__cxx1112basic_stringIcSt11char_traitsIcESaIcEEE(ptr noundef nonnull align 8 dereferenceable(1608) %6, ptr noundef nonnull align 8 dereferenceable(32) %7)
  store i32 %8, ptr %5, align 4, !tbaa !11
  %9 = load ptr, ptr %4, align 8, !tbaa !9
  %10 = call noundef ptr @_ZN6colvar3cvc11parse_groupERKNSt7__cxx1112basic_stringIcSt11char_traitsIcESaIcEEEPKcb(ptr noundef nonnull align 8 dereferenceable(1608) %6, ptr noundef nonnull align 8 dereferenceable(32) %9, ptr noundef @.str.2, i1 noundef zeroext false)
  %11 = getelementptr inbounds nuw %"class.colvar::dipole_angle", ptr %6, i32 0, i32 1
  store ptr %10, ptr %11, align 8, !tbaa !120
  %12 = load ptr, ptr %4, align 8, !tbaa !9
  %13 = call noundef ptr @_ZN6colvar3cvc11parse_groupERKNSt7__cxx1112basic_stringIcSt11char_traitsIcESaIcEEEPKcb(ptr noundef nonnull align 8 dereferenceable(1608) %6, ptr noundef nonnull align 8 dereferenceable(32) %12, ptr noundef @.str.3, i1 noundef zeroext false)
  %14 = getelementptr inbounds nuw %"class.colvar::dipole_angle", ptr %6, i32 0, i32 2
  store ptr %13, ptr %14, align 8, !tbaa !122
  %15 = load ptr, ptr %4, align 8, !tbaa !9
  %16 = call noundef ptr @_ZN6colvar3cvc11parse_groupERKNSt7__cxx1112basic_stringIcSt11char_traitsIcESaIcEEEPKcb(ptr noundef nonnull align 8 dereferenceable(1608) %6, ptr noundef nonnull align 8 dereferenceable(32) %15, ptr noundef @.str.4, i1 noundef zeroext false)
  %17 = getelementptr inbounds nuw %"class.colvar::dipole_angle", ptr %6, i32 0, i32 3
  store ptr %16, ptr %17, align 8, !tbaa !123
  %18 = load ptr, ptr %4, align 8, !tbaa !9
  %19 = load ptr, ptr %6, align 8, !tbaa !89
  %20 = getelementptr inbounds ptr, ptr %19, i64 26
  %21 = load ptr, ptr %20, align 8
  %22 = call noundef i32 %21(ptr noundef nonnull align 8 dereferenceable(1608) %6, ptr noundef nonnull align 8 dereferenceable(32) %18)
  %23 = load i32, ptr %5, align 4, !tbaa !11
  %24 = or i32 %23, %22
  store i32 %24, ptr %5, align 4, !tbaa !11
  %25 = load i32, ptr %5, align 4, !tbaa !11
  call void @llvm.lifetime.end.p0(i64 4, ptr %5) #17
  ret i32 %25
}